target datalayout = "e-m:e-p270:32:32-p271:32:32-p272:64:64-i64:64-i128:128-f80:128-n8:16:32:64-S128"
target triple = "x86_64-unknown-linux-gnu"

%"struct.google::SiteFlag" = type { ptr, ptr, i64, ptr }
%"class.proxygen::HPACKDecoderBase" = type { i8, i32, i64 }
%"class.google::LogMessageVoidify" = type { i8 }
%"class.google::LogMessage" = type { ptr, ptr, %"struct.google::LogMessageTime" }
%"struct.google::LogMessageTime" = type { %struct.tm, i64, i32, i64 }
%struct.tm = type { i32, i32, i32, i32, i32, i32, i32, i32, i32, i64, ptr }

@.str = private unnamed_addr constant [149 x i8] c"generated/home/dtcxzyw/WorkSpace/Projects/compilers/llvm-opt-benchmark/bench/proxygen/proxygen/proxygen/lib/http/codec/compress/HPACKDecoderBase.cpp\00", align 1
@.str.2 = private unnamed_addr constant [36 x i8] c"Decode error decoding maxSize err_=\00", align 1
@.str.3 = private unnamed_addr constant [47 x i8] c"Tried to increase size of the header table to \00", align 1
@.str.4 = private unnamed_addr constant [16 x i8] c" maxTableSize_=\00", align 1
@_ZZN8proxygen16HPACKDecoderBase21handleTableSizeUpdateERNS_17HPACKDecodeBufferERNS_11HeaderTableEbE8vlocal__ = internal global %"struct.google::SiteFlag" zeroinitializer, align 8
@_ZN3fLI7FLAGS_vE = external global i32, align 4
@.str.5 = private unnamed_addr constant [38 x i8] c"Received table size update, new size=\00", align 1

; Function Attrs: mustprogress nounwind uwtable
define linkonce_odr void @_ZN6google17LogMessageVoidifyanERSo(ptr noundef nonnull align 1 dereferenceable(1) %this, ptr noundef nonnull align 8 dereferenceable(8) %0) #5 comdat align 2 {
entry:
  %this.addr = alloca ptr, align 8
  %.addr = alloca ptr, align 8
  store ptr %this, ptr %this.addr, align 8
  store ptr %0, ptr %.addr, align 8
  ret void
}

; Function Attrs: mustprogress nounwind uwtable
define linkonce_odr void @_ZN6google17LogMessageVoidifyC2Ev(ptr noundef nonnull align 1 dereferenceable(1) %this) unnamed_addr #5 comdat align 2 {
entry:
  %this.addr = alloca ptr, align 8
  store ptr %this, ptr %this.addr, align 8
  ret void
}

; Function Attrs: mustprogress uwtable
define void @_ZN8proxygen16HPACKDecoderBase21handleTableSizeUpdateERNS_17HPACKDecodeBufferERNS_11HeaderTableEb(ptr noundef nonnull align 8 dereferenceable(16) %this, ptr noundef nonnull align 8 dereferenceable(21) %dbuf, ptr noundef nonnull align 8 dereferenceable(80) %table, i1 noundef zeroext %isQpack) #4 align 2 personality ptr @__gxx_personality_v0 {
entry:
  %this.addr = alloca ptr, align 8
  %dbuf.addr = alloca ptr, align 8
  %table.addr = alloca ptr, align 8
  %isQpack.addr = alloca i8, align 1
  %arg = alloca i64, align 8
  %ref.tmp = alloca %"class.google::LogMessage", align 8
  %exn.slot = alloca ptr, align 8
  %ehselector.slot = alloca i32, align 4
  %ref.tmp15 = alloca %"class.google::LogMessage", align 8
  %verbose_level__ = alloca i32, align 4
  %tmp = alloca i8, align 1
  %ref.tmp37 = alloca %"class.google::LogMessageVoidify", align 1
  %ref.tmp38 = alloca %"class.google::LogMessage", align 8
  %cleanup.cond = alloca i1, align 1
  store ptr %this, ptr %this.addr, align 8
  store ptr %dbuf, ptr %dbuf.addr, align 8
  store ptr %table, ptr %table.addr, align 8
  %frombool = zext i1 %isQpack to i8
  store i8 %frombool, ptr %isQpack.addr, align 1
  %this1 = load ptr, ptr %this.addr, align 8
  store i64 0, ptr %arg, align 8
  %0 = load ptr, ptr %dbuf.addr, align 8
  %call = call noundef zeroext i8 @_ZN8proxygen17HPACKDecodeBuffer13decodeIntegerEhRm(ptr noundef nonnull align 8 dereferenceable(21) %0, i8 noundef zeroext 5, ptr noundef nonnull align 8 dereferenceable(8) %arg)
  %err_ = getelementptr inbounds %"class.proxygen::HPACKDecoderBase", ptr %this1, i32 0, i32 0
  store i8 %call, ptr %err_, align 8
  %err_2 = getelementptr inbounds %"class.proxygen::HPACKDecoderBase", ptr %this1, i32 0, i32 0
  %1 = load i8, ptr %err_2, align 8
  %cmp = icmp ne i8 %1, 0
  br i1 %cmp, label %if.then, label %if.end12

if.then:                                          ; preds = %entry
  %2 = load i8, ptr %isQpack.addr, align 1
  %tobool = trunc i8 %2 to i1
  br i1 %tobool, label %lor.lhs.false, label %if.then5

lor.lhs.false:                                    ; preds = %if.then
  %err_3 = getelementptr inbounds %"class.proxygen::HPACKDecoderBase", ptr %this1, i32 0, i32 0
  %3 = load i8, ptr %err_3, align 8
  %cmp4 = icmp ne i8 %3, 7
  br i1 %cmp4, label %if.then5, label %if.end

if.then5:                                         ; preds = %lor.lhs.false, %if.then
  call void @_ZN6google10LogMessageC1EPKcii(ptr noundef nonnull align 8 dereferenceable(96) %ref.tmp, ptr noundef @.str, i32 noundef 72, i32 noundef 2)
  %call6 = invoke noundef nonnull align 8 dereferenceable(8) ptr @_ZN6google10LogMessage6streamEv(ptr noundef nonnull align 8 dereferenceable(96) %ref.tmp)
          to label %invoke.cont unwind label %lpad

invoke.cont:                                      ; preds = %if.then5
  %call8 = invoke noundef nonnull align 8 dereferenceable(8) ptr @_ZStlsISt11char_traitsIcEERSt13basic_ostreamIcT_ES5_PKc(ptr noundef nonnull align 8 dereferenceable(8) %call6, ptr noundef @.str.2)
          to label %invoke.cont7 unwind label %lpad

invoke.cont7:                                     ; preds = %invoke.cont
  %err_9 = getelementptr inbounds %"class.proxygen::HPACKDecoderBase", ptr %this1, i32 0, i32 0
  %4 = load i8, ptr %err_9, align 8
  %call11 = invoke noundef nonnull align 8 dereferenceable(8) ptr @_ZN8proxygen5HPACKlsERSoNS0_11DecodeErrorE(ptr noundef nonnull align 8 dereferenceable(8) %call8, i8 noundef zeroext %4)
          to label %invoke.cont10 unwind label %lpad

invoke.cont10:                                    ; preds = %invoke.cont7
  call void @_ZN6google10LogMessageD1Ev(ptr noundef nonnull align 8 dereferenceable(96) %ref.tmp) #3
  br label %if.end

lpad:                                             ; preds = %invoke.cont7, %invoke.cont, %if.then5
  %5 = landingpad { ptr, i32 }
          cleanup
  %6 = extractvalue { ptr, i32 } %5, 0
  store ptr %6, ptr %exn.slot, align 8
  %7 = extractvalue { ptr, i32 } %5, 1
  store i32 %7, ptr %ehselector.slot, align 4
  call void @_ZN6google10LogMessageD1Ev(ptr noundef nonnull align 8 dereferenceable(96) %ref.tmp) #3
  br label %eh.resume

if.end:                                           ; preds = %invoke.cont10, %lor.lhs.false
  br label %return

if.end12:                                         ; preds = %entry
  %8 = load i64, ptr %arg, align 8
  %maxTableSize_ = getelementptr inbounds %"class.proxygen::HPACKDecoderBase", ptr %this1, i32 0, i32 1
  %9 = load i32, ptr %maxTableSize_, align 4
  %conv = zext i32 %9 to i64
  %cmp13 = icmp ugt i64 %8, %conv
  br i1 %cmp13, label %if.then14, label %if.end29

if.then14:                                        ; preds = %if.end12
  call void @_ZN6google10LogMessageC1EPKcii(ptr noundef nonnull align 8 dereferenceable(96) %ref.tmp15, ptr noundef @.str, i32 noundef 78, i32 noundef 2)
  %call18 = invoke noundef nonnull align 8 dereferenceable(8) ptr @_ZN6google10LogMessage6streamEv(ptr noundef nonnull align 8 dereferenceable(96) %ref.tmp15)
          to label %invoke.cont17 unwind label %lpad16

invoke.cont17:                                    ; preds = %if.then14
  %call20 = invoke noundef nonnull align 8 dereferenceable(8) ptr @_ZStlsISt11char_traitsIcEERSt13basic_ostreamIcT_ES5_PKc(ptr noundef nonnull align 8 dereferenceable(8) %call18, ptr noundef @.str.3)
          to label %invoke.cont19 unwind label %lpad16

invoke.cont19:                                    ; preds = %invoke.cont17
  %10 = load i64, ptr %arg, align 8
  %call22 = invoke noundef nonnull align 8 dereferenceable(8) ptr @_ZNSolsEm(ptr noundef nonnull align 8 dereferenceable(8) %call20, i64 noundef %10)
          to label %invoke.cont21 unwind label %lpad16

invoke.cont21:                                    ; preds = %invoke.cont19
  %call24 = invoke noundef nonnull align 8 dereferenceable(8) ptr @_ZStlsISt11char_traitsIcEERSt13basic_ostreamIcT_ES5_PKc(ptr noundef nonnull align 8 dereferenceable(8) %call22, ptr noundef @.str.4)
          to label %invoke.cont23 unwind label %lpad16

invoke.cont23:                                    ; preds = %invoke.cont21
  %maxTableSize_25 = getelementptr inbounds %"class.proxygen::HPACKDecoderBase", ptr %this1, i32 0, i32 1
  %11 = load i32, ptr %maxTableSize_25, align 4
  %call27 = invoke noundef nonnull align 8 dereferenceable(8) ptr @_ZNSolsEj(ptr noundef nonnull align 8 dereferenceable(8) %call24, i32 noundef %11)
          to label %invoke.cont26 unwind label %lpad16

invoke.cont26:                                    ; preds = %invoke.cont23
  call void @_ZN6google10LogMessageD1Ev(ptr noundef nonnull align 8 dereferenceable(96) %ref.tmp15) #3
  %err_28 = getelementptr inbounds %"class.proxygen::HPACKDecoderBase", ptr %this1, i32 0, i32 0
  store i8 5, ptr %err_28, align 8
  br label %return

lpad16:                                           ; preds = %invoke.cont23, %invoke.cont21, %invoke.cont19, %invoke.cont17, %if.then14
  %12 = landingpad { ptr, i32 }
          cleanup
  %13 = extractvalue { ptr, i32 } %12, 0
  store ptr %13, ptr %exn.slot, align 8
  %14 = extractvalue { ptr, i32 } %12, 1
  store i32 %14, ptr %ehselector.slot, align 4
  call void @_ZN6google10LogMessageD1Ev(ptr noundef nonnull align 8 dereferenceable(96) %ref.tmp15) #3
  br label %eh.resume

if.end29:                                         ; preds = %if.end12
  store i32 5, ptr %verbose_level__, align 4
  %15 = load ptr, ptr @_ZZN8proxygen16HPACKDecoderBase21handleTableSizeUpdateERNS_17HPACKDecodeBufferERNS_11HeaderTableEbE8vlocal__, align 8
  %cmp30 = icmp eq ptr %15, null
  store i1 false, ptr %cleanup.cond, align 1
  br i1 %cmp30, label %cond.true, label %cond.false

cond.true:                                        ; preds = %if.end29
  %16 = load i32, ptr %verbose_level__, align 4
  %call31 = call noundef zeroext i1 @_ZN6google11InitVLOG3__EPNS_8SiteFlagEPiPKci(ptr noundef @_ZZN8proxygen16HPACKDecoderBase21handleTableSizeUpdateERNS_17HPACKDecodeBufferERNS_11HeaderTableEbE8vlocal__, ptr noundef @_ZN3fLI7FLAGS_vE, ptr noundef @.str, i32 noundef %16)
  br label %cond.end

cond.false:                                       ; preds = %if.end29
  %17 = load ptr, ptr @_ZZN8proxygen16HPACKDecoderBase21handleTableSizeUpdateERNS_17HPACKDecodeBufferERNS_11HeaderTableEbE8vlocal__, align 8
  %18 = load i32, ptr %17, align 4
  %19 = load i32, ptr %verbose_level__, align 4
  %cmp32 = icmp sge i32 %18, %19
  br label %cond.end

cond.end:                                         ; preds = %cond.false, %cond.true
  %cond = phi i1 [ %call31, %cond.true ], [ %cmp32, %cond.false ]
  %frombool33 = zext i1 %cond to i8
  store i8 %frombool33, ptr %tmp, align 1
  %20 = load i8, ptr %tmp, align 1
  %tobool34 = trunc i8 %20 to i1
  br i1 %tobool34, label %cond.false36, label %cond.true35

cond.true35:                                      ; preds = %cond.end
  br label %cond.end47

cond.false36:                                     ; preds = %cond.end
  call void @_ZN6google17LogMessageVoidifyC2Ev(ptr noundef nonnull align 1 dereferenceable(1) %ref.tmp37)
  call void @_ZN6google10LogMessageC1EPKci(ptr noundef nonnull align 8 dereferenceable(96) %ref.tmp38, ptr noundef @.str, i32 noundef 83)
  store i1 true, ptr %cleanup.cond, align 1
  %call41 = invoke noundef nonnull align 8 dereferenceable(8) ptr @_ZN6google10LogMessage6streamEv(ptr noundef nonnull align 8 dereferenceable(96) %ref.tmp38)
          to label %invoke.cont40 unwind label %lpad39

invoke.cont40:                                    ; preds = %cond.false36
  %call43 = invoke noundef nonnull align 8 dereferenceable(8) ptr @_ZStlsISt11char_traitsIcEERSt13basic_ostreamIcT_ES5_PKc(ptr noundef nonnull align 8 dereferenceable(8) %call41, ptr noundef @.str.5)
          to label %invoke.cont42 unwind label %lpad39

invoke.cont42:                                    ; preds = %invoke.cont40
  %21 = load i64, ptr %arg, align 8
  %call45 = invoke noundef nonnull align 8 dereferenceable(8) ptr @_ZNSolsEm(ptr noundef nonnull align 8 dereferenceable(8) %call43, i64 noundef %21)
          to label %invoke.cont44 unwind label %lpad39

invoke.cont44:                                    ; preds = %invoke.cont42
  invoke void @_ZN6google17LogMessageVoidifyanERSo(ptr noundef nonnull align 1 dereferenceable(1) %ref.tmp37, ptr noundef nonnull align 8 dereferenceable(8) %call45)
          to label %invoke.cont46 unwind label %lpad39

invoke.cont46:                                    ; preds = %invoke.cont44
  br label %cond.end47

cond.end47:                                       ; preds = %invoke.cont46, %cond.true35
  %cleanup.is_active = load i1, ptr %cleanup.cond, align 1
  br i1 %cleanup.is_active, label %cleanup.action, label %cleanup.done

cleanup.action:                                   ; preds = %cond.end47
  call void @_ZN6google10LogMessageD1Ev(ptr noundef nonnull align 8 dereferenceable(96) %ref.tmp38) #3
  br label %cleanup.done

cleanup.done:                                     ; preds = %cleanup.action, %cond.end47
  %22 = load ptr, ptr %table.addr, align 8
  %23 = load i64, ptr %arg, align 8
  %conv51 = trunc i64 %23 to i32
  %vtable = load ptr, ptr %22, align 8
  %vfn = getelementptr inbounds ptr, ptr %vtable, i64 3
  %24 = load ptr, ptr %vfn, align 8
  %call52 = call noundef zeroext i1 %24(ptr noundef nonnull align 8 dereferenceable(80) %22, i32 noundef %conv51)
  br label %return

return:                                           ; preds = %cleanup.done, %invoke.cont26, %if.end
  ret void

lpad39:                                           ; preds = %invoke.cont44, %invoke.cont42, %invoke.cont40, %cond.false36
  %25 = landingpad { ptr, i32 }
          cleanup
  %26 = extractvalue { ptr, i32 } %25, 0
  store ptr %26, ptr %exn.slot, align 8
  %27 = extractvalue { ptr, i32 } %25, 1
  store i32 %27, ptr %ehselector.slot, align 4
  %cleanup.is_active48 = load i1, ptr %cleanup.cond, align 1
  br i1 %cleanup.is_active48, label %cleanup.action49, label %cleanup.done50

cleanup.action49:                                 ; preds = %lpad39
  call void @_ZN6google10LogMessageD1Ev(ptr noundef nonnull align 8 dereferenceable(96) %ref.tmp38) #3
  br label %cleanup.done50

cleanup.done50:                                   ; preds = %cleanup.action49, %lpad39
  br label %eh.resume

eh.resume:                                        ; preds = %cleanup.done50, %lpad16, %lpad
  %exn = load ptr, ptr %exn.slot, align 8
  %sel = load i32, ptr %ehselector.slot, align 4
  %lpad.val = insertvalue { ptr, i32 } poison, ptr %exn, 0
  %lpad.val53 = insertvalue { ptr, i32 } %lpad.val, i32 %sel, 1
  resume { ptr, i32 } %lpad.val53
}