; Function Attrs: mustprogress uwtable
define void @_ZN8proxygen16HPACKDecoderBase21handleTableSizeUpdateERNS_17HPACKDecodeBufferERNS_11HeaderTableEb(ptr nocapture noundef nonnull align 8 dereferenceable(16) %this, ptr noundef nonnull align 8 dereferenceable(21) %dbuf, ptr noundef nonnull align 8 dereferenceable(80) %table, i1 noundef zeroext %isQpack) local_unnamed_addr #3 align 2 personality ptr @__gxx_personality_v0 {
entry:
  %arg = alloca i64, align 8
  %ref.tmp = alloca %"class.google::LogMessage", align 8
  %ref.tmp15 = alloca %"class.google::LogMessage", align 8
  %ref.tmp38 = alloca %"class.google::LogMessage", align 8
  store i64 0, ptr %arg, align 8
  %call = call noundef zeroext i8 @_ZN8proxygen17HPACKDecodeBuffer13decodeIntegerEhRm(ptr noundef nonnull align 8 dereferenceable(21) %dbuf, i8 noundef zeroext 5, ptr noundef nonnull align 8 dereferenceable(8) %arg)
  store i8 %call, ptr %this, align 8
  %cmp.not = icmp eq i8 %call, 0
  br i1 %cmp.not, label %if.end12, label %if.then

if.then:                                          ; preds = %entry
  %cmp4.not = icmp eq i8 %call, 7
  %or.cond = and i1 %cmp4.not, %isQpack
  br i1 %or.cond, label %return, label %if.then5

if.then5:                                         ; preds = %if.then
  call void @_ZN6google10LogMessageC1EPKcii(ptr noundef nonnull align 8 dereferenceable(96) %ref.tmp, ptr noundef nonnull @.str, i32 noundef 72, i32 noundef 2)
  %call6 = invoke noundef nonnull align 8 dereferenceable(8) ptr @_ZN6google10LogMessage6streamEv(ptr noundef nonnull align 8 dereferenceable(96) %ref.tmp)
          to label %invoke.cont unwind label %lpad

invoke.cont:                                      ; preds = %if.then5
  %call8 = invoke noundef nonnull align 8 dereferenceable(8) ptr @_ZStlsISt11char_traitsIcEERSt13basic_ostreamIcT_ES5_PKc(ptr noundef nonnull align 8 dereferenceable(8) %call6, ptr noundef nonnull @.str.2)
          to label %invoke.cont7 unwind label %lpad

invoke.cont7:                                     ; preds = %invoke.cont
  %0 = load i8, ptr %this, align 8
  %call11 = invoke noundef nonnull align 8 dereferenceable(8) ptr @_ZN8proxygen5HPACKlsERSoNS0_11DecodeErrorE(ptr noundef nonnull align 8 dereferenceable(8) %call8, i8 noundef zeroext %0)
          to label %invoke.cont10 unwind label %lpad

invoke.cont10:                                    ; preds = %invoke.cont7
  call void @_ZN6google10LogMessageD1Ev(ptr noundef nonnull align 8 dereferenceable(96) %ref.tmp) #22
  br label %return

lpad:                                             ; preds = %invoke.cont7, %invoke.cont, %if.then5
  %1 = landingpad { ptr, i32 }
          cleanup
  br label %eh.resume

if.end12:                                         ; preds = %entry
  %2 = load i64, ptr %arg, align 8
  %maxTableSize_ = getelementptr inbounds i8, ptr %this, i64 4
  %3 = load i32, ptr %maxTableSize_, align 4
  %conv = zext i32 %3 to i64
  %cmp13 = icmp ugt i64 %2, %conv
  br i1 %cmp13, label %if.then14, label %if.end29

if.then14:                                        ; preds = %if.end12
  call void @_ZN6google10LogMessageC1EPKcii(ptr noundef nonnull align 8 dereferenceable(96) %ref.tmp15, ptr noundef nonnull @.str, i32 noundef 78, i32 noundef 2)
  %call18 = invoke noundef nonnull align 8 dereferenceable(8) ptr @_ZN6google10LogMessage6streamEv(ptr noundef nonnull align 8 dereferenceable(96) %ref.tmp15)
          to label %invoke.cont17 unwind label %lpad16

invoke.cont17:                                    ; preds = %if.then14
  %call20 = invoke noundef nonnull align 8 dereferenceable(8) ptr @_ZStlsISt11char_traitsIcEERSt13basic_ostreamIcT_ES5_PKc(ptr noundef nonnull align 8 dereferenceable(8) %call18, ptr noundef nonnull @.str.3)
          to label %invoke.cont19 unwind label %lpad16

invoke.cont19:                                    ; preds = %invoke.cont17
  %4 = load i64, ptr %arg, align 8
  %call22 = invoke noundef nonnull align 8 dereferenceable(8) ptr @_ZNSolsEm(ptr noundef nonnull align 8 dereferenceable(8) %call20, i64 noundef %4)
          to label %invoke.cont21 unwind label %lpad16

invoke.cont21:                                    ; preds = %invoke.cont19
  %call24 = invoke noundef nonnull align 8 dereferenceable(8) ptr @_ZStlsISt11char_traitsIcEERSt13basic_ostreamIcT_ES5_PKc(ptr noundef nonnull align 8 dereferenceable(8) %call22, ptr noundef nonnull @.str.4)
          to label %invoke.cont23 unwind label %lpad16

invoke.cont23:                                    ; preds = %invoke.cont21
  %5 = load i32, ptr %maxTableSize_, align 4
  %call27 = invoke noundef nonnull align 8 dereferenceable(8) ptr @_ZNSolsEj(ptr noundef nonnull align 8 dereferenceable(8) %call24, i32 noundef %5)
          to label %invoke.cont26 unwind label %lpad16

invoke.cont26:                                    ; preds = %invoke.cont23
  call void @_ZN6google10LogMessageD1Ev(ptr noundef nonnull align 8 dereferenceable(96) %ref.tmp15) #22
  store i8 5, ptr %this, align 8
  br label %return

lpad16:                                           ; preds = %invoke.cont23, %invoke.cont21, %invoke.cont19, %invoke.cont17, %if.then14
  %6 = landingpad { ptr, i32 }
          cleanup
  br label %eh.resume

if.end29:                                         ; preds = %if.end12
  %7 = load ptr, ptr @_ZZN8proxygen16HPACKDecoderBase21handleTableSizeUpdateERNS_17HPACKDecodeBufferERNS_11HeaderTableEbE8vlocal__, align 8
  %cmp30 = icmp eq ptr %7, null
  br i1 %cmp30, label %cond.true, label %cond.end

cond.true:                                        ; preds = %if.end29
  %call31 = call noundef zeroext i1 @_ZN6google11InitVLOG3__EPNS_8SiteFlagEPiPKci(ptr noundef nonnull @_ZZN8proxygen16HPACKDecoderBase21handleTableSizeUpdateERNS_17HPACKDecodeBufferERNS_11HeaderTableEbE8vlocal__, ptr noundef nonnull @_ZN3fLI7FLAGS_vE, ptr noundef nonnull @.str, i32 noundef 5)
  br i1 %call31, label %cond.false36, label %cleanup.done

cond.end:                                         ; preds = %if.end29
  %8 = load i32, ptr %7, align 4
  %cmp32 = icmp sgt i32 %8, 4
  br i1 %cmp32, label %cond.false36, label %cleanup.done

cond.false36:                                     ; preds = %cond.true, %cond.end
  call void @_ZN6google10LogMessageC1EPKci(ptr noundef nonnull align 8 dereferenceable(96) %ref.tmp38, ptr noundef nonnull @.str, i32 noundef 83)
  %call41 = invoke noundef nonnull align 8 dereferenceable(8) ptr @_ZN6google10LogMessage6streamEv(ptr noundef nonnull align 8 dereferenceable(96) %ref.tmp38)
          to label %invoke.cont40 unwind label %lpad39

invoke.cont40:                                    ; preds = %cond.false36
  %call43 = invoke noundef nonnull align 8 dereferenceable(8) ptr @_ZStlsISt11char_traitsIcEERSt13basic_ostreamIcT_ES5_PKc(ptr noundef nonnull align 8 dereferenceable(8) %call41, ptr noundef nonnull @.str.5)
          to label %invoke.cont42 unwind label %lpad39

invoke.cont42:                                    ; preds = %invoke.cont40
  %9 = load i64, ptr %arg, align 8
  %call45 = invoke noundef nonnull align 8 dereferenceable(8) ptr @_ZNSolsEm(ptr noundef nonnull align 8 dereferenceable(8) %call43, i64 noundef %9)
          to label %cleanup.action unwind label %lpad39

cleanup.action:                                   ; preds = %invoke.cont42
  call void @_ZN6google10LogMessageD1Ev(ptr noundef nonnull align 8 dereferenceable(96) %ref.tmp38) #22
  br label %cleanup.done

cleanup.done:                                     ; preds = %cond.true, %cond.end, %cleanup.action
  %10 = load i64, ptr %arg, align 8
  %conv51 = trunc i64 %10 to i32
  %vtable = load ptr, ptr %table, align 8
  %vfn = getelementptr inbounds i8, ptr %vtable, i64 24
  %11 = load ptr, ptr %vfn, align 8
  %call52 = call noundef zeroext i1 %11(ptr noundef nonnull align 8 dereferenceable(80) %table, i32 noundef %conv51)
  br label %return

return:                                           ; preds = %if.then, %invoke.cont10, %cleanup.done, %invoke.cont26
  ret void

lpad39:                                           ; preds = %invoke.cont42, %invoke.cont40, %cond.false36
  %12 = landingpad { ptr, i32 }
          cleanup
  br label %eh.resume

eh.resume:                                        ; preds = %lpad39, %lpad16, %lpad
  %ref.tmp38.sink = phi ptr [ %ref.tmp38, %lpad39 ], [ %ref.tmp15, %lpad16 ], [ %ref.tmp, %lpad ]
  %.pn = phi { ptr, i32 } [ %12, %lpad39 ], [ %6, %lpad16 ], [ %1, %lpad ]
  call void @_ZN6google10LogMessageD1Ev(ptr noundef nonnull align 8 dereferenceable(96) %ref.tmp38.sink) #22
  resume { ptr, i32 } %.pn
}